target datalayout = "e-m:e-p270:32:32-p271:32:32-p272:64:64-i64:64-i128:128-f80:128-n8:16:32:64-S128"
target triple = "x86_64-pc-linux-gnu"

%class.ZRememberedSet = type { [2 x %class.ZMovableBitMap] }
%class.ZMovableBitMap = type { %class.CHeapBitMap.base, [7 x i8] }
%class.CHeapBitMap.base = type <{ %class.GrowableBitMap, i8 }>
%class.GrowableBitMap = type { %class.BitMap }
%class.BitMap = type { ptr, i64 }
%"class.ZBitMap::ReverseIterator" = type { ptr, i64, i64 }
%class.ZRememberedSetContainingIterator = type { ptr, %"class.ZBitMap::ReverseIterator", i64, %"class.ZBitMap::ReverseIterator" }
%class.ZPage = type { i8, i8, i8, i8, i32, i32, %class.ZVirtualMemory, i64, %class.ZLiveMap, %class.ZRememberedSet, i64, %class.ZPhysicalMemory, %class.ZListNode }
%class.ZVirtualMemory = type { i64, i64 }
%class.ZLiveMap = type { i32, i32, i64, i64, i64, %class.ZBitMap, i64 }
%class.ZBitMap = type { %class.CHeapBitMap.base, [7 x i8] }
%class.ZPhysicalMemory = type { %class.GrowableArrayCHeap }
%class.GrowableArrayCHeap = type { %class.GrowableArrayWithAllocator }
%class.GrowableArrayWithAllocator = type { %class.GrowableArrayView }
%class.GrowableArrayView = type { %class.GrowableArrayBase, ptr }
%class.GrowableArrayBase = type { i32, i32 }
%class.ZListNode = type { ptr, ptr }

@_ZN14ZRememberedSet8_currentE = hidden global i32 0, align 4

; Function Attrs: mustprogress nounwind uwtable
define linkonce_odr hidden void @_ZN7ZBitMap15ReverseIteratorC2EP6BitMapmm(ptr noundef nonnull align 8 dereferenceable(24) %0, ptr noundef %1, i64 noundef %2, i64 noundef %3) unnamed_addr #1 comdat align 2 {
  %5 = alloca ptr, align 8
  %6 = alloca ptr, align 8
  %7 = alloca i64, align 8
  %8 = alloca i64, align 8
  store ptr %0, ptr %5, align 8
  store ptr %1, ptr %6, align 8
  store i64 %2, ptr %7, align 8
  store i64 %3, ptr %8, align 8
  %9 = load ptr, ptr %5, align 8
  %10 = getelementptr inbounds %"class.ZBitMap::ReverseIterator", ptr %9, i32 0, i32 0
  %11 = load ptr, ptr %6, align 8
  store ptr %11, ptr %10, align 8
  %12 = getelementptr inbounds %"class.ZBitMap::ReverseIterator", ptr %9, i32 0, i32 1
  %13 = load i64, ptr %7, align 8
  store i64 %13, ptr %12, align 8
  %14 = getelementptr inbounds %"class.ZBitMap::ReverseIterator", ptr %9, i32 0, i32 2
  %15 = load i64, ptr %8, align 8
  store i64 %15, ptr %14, align 8
  ret void
}

; Function Attrs: mustprogress nounwind uwtable
define linkonce_odr hidden noundef i64 @_ZNK6BitMap4sizeEv(ptr noundef nonnull align 8 dereferenceable(16) %0) #1 comdat align 2 {
  %2 = alloca ptr, align 8
  store ptr %0, ptr %2, align 8
  %3 = load ptr, ptr %2, align 8
  %4 = getelementptr inbounds %class.BitMap, ptr %3, i32 0, i32 1
  %5 = load i64, ptr %4, align 8
  ret i64 %5
}

; Function Attrs: mustprogress nounwind uwtable
define linkonce_odr hidden void @_ZN7ZBitMap15ReverseIteratorC2EP6BitMap(ptr noundef nonnull align 8 dereferenceable(24) %0, ptr noundef %1) unnamed_addr #1 comdat align 2 {
  %3 = alloca ptr, align 8
  %4 = alloca ptr, align 8
  store ptr %0, ptr %3, align 8
  store ptr %1, ptr %4, align 8
  %5 = load ptr, ptr %3, align 8
  %6 = load ptr, ptr %4, align 8
  %7 = load ptr, ptr %4, align 8
  %8 = call noundef i64 @_ZNK6BitMap4sizeEv(ptr noundef nonnull align 8 dereferenceable(16) %7)
  call void @_ZN7ZBitMap15ReverseIteratorC2EP6BitMapmm(ptr noundef nonnull align 8 dereferenceable(24) %5, ptr noundef %6, i64 noundef 0, i64 noundef %8)
  ret void
}

; Function Attrs: mustprogress nounwind uwtable
define linkonce_odr hidden noundef ptr @_ZN14ZRememberedSet8previousEv(ptr noundef nonnull align 8 dereferenceable(48) %0) #1 comdat align 2 {
  %2 = alloca ptr, align 8
  store ptr %0, ptr %2, align 8
  %3 = load ptr, ptr %2, align 8
  %4 = getelementptr inbounds %class.ZRememberedSet, ptr %3, i32 0, i32 0
  %5 = load i32, ptr @_ZN14ZRememberedSet8_currentE, align 4
  %6 = xor i32 %5, 1
  %7 = sext i32 %6 to i64
  %8 = getelementptr inbounds [2 x %class.ZMovableBitMap], ptr %4, i64 0, i64 %7
  ret ptr %8
}

; Function Attrs: mustprogress nounwind uwtable
define hidden void @_ZN14ZRememberedSet25iterator_reverse_previousEv(ptr dead_on_unwind noalias writable sret(%"class.ZBitMap::ReverseIterator") align 8 %0, ptr noundef nonnull align 8 dereferenceable(48) %1) #1 align 2 {
  %3 = alloca ptr, align 8
  store ptr %1, ptr %3, align 8
  %4 = load ptr, ptr %3, align 8
  %5 = call noundef ptr @_ZN14ZRememberedSet8previousEv(ptr noundef nonnull align 8 dereferenceable(48) %4)
  call void @_ZN7ZBitMap15ReverseIteratorC2EP6BitMap(ptr noundef nonnull align 8 dereferenceable(24) %0, ptr noundef %5)
  ret void
}

; Function Attrs: mustprogress nounwind uwtable
define linkonce_odr hidden void @_ZN5ZPage32remset_reverse_iterator_previousEv(ptr dead_on_unwind noalias writable sret(%"class.ZBitMap::ReverseIterator") align 8 %0, ptr noundef nonnull align 8 dereferenceable(192) %1) #1 comdat align 2 {
  %3 = alloca ptr, align 8
  store ptr %1, ptr %3, align 8
  %4 = load ptr, ptr %3, align 8
  %5 = getelementptr inbounds %class.ZPage, ptr %4, i32 0, i32 9
  call void @_ZN14ZRememberedSet25iterator_reverse_previousEv(ptr dead_on_unwind writable sret(%"class.ZBitMap::ReverseIterator") align 8 %0, ptr noundef nonnull align 8 dereferenceable(48) %5)
  ret void
}

; Function Attrs: mustprogress nounwind uwtable
define hidden void @_ZN32ZRememberedSetContainingIteratorC2EP5ZPage(ptr noundef nonnull align 8 dereferenceable(64) %0, ptr noundef %1) unnamed_addr #1 align 2 {
  %3 = alloca ptr, align 8
  %4 = alloca ptr, align 8
  store ptr %0, ptr %3, align 8
  store ptr %1, ptr %4, align 8
  %5 = load ptr, ptr %3, align 8
  %6 = getelementptr inbounds %class.ZRememberedSetContainingIterator, ptr %5, i32 0, i32 0
  %7 = load ptr, ptr %4, align 8
  store ptr %7, ptr %6, align 8
  %8 = getelementptr inbounds %class.ZRememberedSetContainingIterator, ptr %5, i32 0, i32 1
  %9 = load ptr, ptr %4, align 8
  call void @_ZN5ZPage32remset_reverse_iterator_previousEv(ptr dead_on_unwind writable sret(%"class.ZBitMap::ReverseIterator") align 8 %8, ptr noundef nonnull align 8 dereferenceable(192) %9)
  %10 = getelementptr inbounds %class.ZRememberedSetContainingIterator, ptr %5, i32 0, i32 2
  store i64 0, ptr %10, align 8
  %11 = getelementptr inbounds %class.ZRememberedSetContainingIterator, ptr %5, i32 0, i32 3
  %12 = load ptr, ptr %4, align 8
  call void @_ZN5ZPage32remset_reverse_iterator_previousEv(ptr dead_on_unwind writable sret(%"class.ZBitMap::ReverseIterator") align 8 %11, ptr noundef nonnull align 8 dereferenceable(192) %12)
  ret void
}