; Function Attrs: mustprogress nofree norecurse nosync nounwind willreturn memory(read, argmem: readwrite, inaccessiblemem: readwrite) uwtable
define hidden void @_ZN32ZRememberedSetContainingIteratorC2EP5ZPage(ptr nocapture noundef nonnull writeonly align 8 dereferenceable(64) %0, ptr noundef %1) unnamed_addr #8 align 2 {
  store ptr %1, ptr %0, align 8
  %3 = getelementptr inbounds i8, ptr %0, i64 8
  tail call void @llvm.experimental.noalias.scope.decl(metadata !9)
  %4 = getelementptr inbounds i8, ptr %1, i64 104
  tail call void @llvm.experimental.noalias.scope.decl(metadata !12)
  %5 = load i32, ptr @_ZN14ZRememberedSet8_currentE, align 4, !noalias !15
  %6 = xor i32 %5, 1
  %7 = sext i32 %6 to i64
  %8 = getelementptr inbounds [2 x %class.ZMovableBitMap], ptr %4, i64 0, i64 %7
  %9 = getelementptr inbounds i8, ptr %8, i64 8
  %10 = load i64, ptr %9, align 8, !noalias !16
  store ptr %8, ptr %3, align 8, !alias.scope !16
  %11 = getelementptr inbounds i8, ptr %0, i64 16
  store i64 0, ptr %11, align 8, !alias.scope !16
  %12 = getelementptr inbounds i8, ptr %0, i64 24
  store i64 %10, ptr %12, align 8, !alias.scope !16
  %13 = getelementptr inbounds i8, ptr %0, i64 32
  store i64 0, ptr %13, align 8
  %14 = getelementptr inbounds i8, ptr %0, i64 40
  tail call void @llvm.experimental.noalias.scope.decl(metadata !17)
  tail call void @llvm.experimental.noalias.scope.decl(metadata !20)
  %15 = load i64, ptr %9, align 8, !noalias !23
  store ptr %8, ptr %14, align 8, !alias.scope !23
  %16 = getelementptr inbounds i8, ptr %0, i64 48
  store i64 0, ptr %16, align 8, !alias.scope !23
  %17 = getelementptr inbounds i8, ptr %0, i64 56
  store i64 %15, ptr %17, align 8, !alias.scope !23
  ret void
}